target datalayout = "e-m:e-p270:32:32-p271:32:32-p272:64:64-i64:64-i128:128-f80:128-n8:16:32:64-S128"
target triple = "x86_64-pc-linux-gnu"

%struct.anon.1 = type { i64, i64 }
%struct.WalRcvData = type { i32, i32, i32, %struct.ConditionVariable, i64, i64, i32, i64, i32, i64, i64, i64, i64, i64, [1024 x i8], [1025 x i8], i32, [64 x i8], i8, i8, i8, %struct.pg_atomic_uint64, i32 }
%struct.ConditionVariable = type { i8, %struct.proclist_head }
%struct.proclist_head = type { i32, i32 }
%struct.pg_atomic_uint64 = type { i64 }

@.str.1 = private unnamed_addr constant [14 x i8] c"walreceiver.c\00", align 1
@WalRcv = external global ptr, align 8
@LogstreamResult = internal global %struct.anon.1 zeroinitializer, align 8
@recvFile = internal global i32 -1, align 4
@recvSegNo = internal global i64 0, align 8
@update_process_title = external global i8, align 1
@__func__.XLogWalRcvFlush = private unnamed_addr constant [16 x i8] c"XLogWalRcvFlush\00", align 1
@EnableHotStandby = external global i8, align 1
@max_wal_senders = external global i32, align 4
@.str.35 = private unnamed_addr constant [16 x i8] c"streaming %X/%X\00", align 1

; Function Attrs: inlinehint nounwind uwtable
define internal void @set_ps_display(ptr noundef %0) #6 {
  %2 = alloca ptr, align 8
  store ptr %0, ptr %2, align 8
  %3 = load ptr, ptr %2, align 8
  %4 = load ptr, ptr %2, align 8
  %5 = call i64 @strlen(ptr noundef %4) #18
  call void @set_ps_display_with_len(ptr noundef %3, i64 noundef %5)
  ret void
}

; Function Attrs: inlinehint nounwind uwtable
define internal i32 @tas(ptr noundef %0) #6 {
  %2 = alloca ptr, align 8
  %3 = alloca i8, align 1
  store ptr %0, ptr %2, align 8
  call void @llvm.lifetime.start.p0(i64 1, ptr %3) #16
  store i8 1, ptr %3, align 1
  %4 = load i8, ptr %3, align 1
  %5 = load ptr, ptr %2, align 8
  %6 = call i8 asm sideeffect "\09lock\09\09\09\0A\09xchgb\09$0,$1\09\0A", "=q,=*m,0,*m,~{memory},~{cc},~{dirflag},~{fpsr},~{flags}"(ptr elementtype(i8) %5, i8 %4, ptr elementtype(i8) %5) #16, !srcloc !16
  store i8 %6, ptr %3, align 1
  %7 = load i8, ptr %3, align 1
  %8 = zext i8 %7 to i32
  call void @llvm.lifetime.end.p0(i64 1, ptr %3) #16
  ret i32 %8
}

; Function Attrs: nounwind uwtable
define internal void @XLogWalRcvFlush(i1 noundef zeroext %0, i32 noundef %1) #0 {
  %3 = alloca i8, align 1
  %4 = alloca i32, align 4
  %5 = alloca ptr, align 8
  %6 = alloca [50 x i8], align 16
  %7 = alloca i32, align 4
  %8 = zext i1 %0 to i8
  store i8 %8, ptr %3, align 1
  store i32 %1, ptr %4, align 4
  %9 = load i64, ptr getelementptr inbounds nuw (%struct.anon.1, ptr @LogstreamResult, i32 0, i32 1), align 8
  %10 = load i64, ptr @LogstreamResult, align 8
  %11 = icmp ult i64 %9, %10
  br i1 %11, label %12, label %77

12:                                               ; preds = %2
  call void @llvm.lifetime.start.p0(i64 8, ptr %5) #16
  %13 = load ptr, ptr @WalRcv, align 8
  store ptr %13, ptr %5, align 8
  %14 = load i32, ptr @recvFile, align 4
  %15 = load i64, ptr @recvSegNo, align 8
  %16 = load i32, ptr %4, align 4
  call void @issue_xlog_fsync(i32 noundef %14, i64 noundef %15, i32 noundef %16)
  %17 = load i64, ptr @LogstreamResult, align 8
  store i64 %17, ptr getelementptr inbounds nuw (%struct.anon.1, ptr @LogstreamResult, i32 0, i32 1), align 8
  %18 = load ptr, ptr %5, align 8
  %19 = getelementptr inbounds nuw %struct.WalRcvData, ptr %18, i32 0, i32 20
  %20 = call i32 @tas(ptr noundef %19)
  %21 = icmp ne i32 %20, 0
  br i1 %21, label %22, label %26

22:                                               ; preds = %12
  %23 = load ptr, ptr %5, align 8
  %24 = getelementptr inbounds nuw %struct.WalRcvData, ptr %23, i32 0, i32 20
  %25 = call i32 @s_lock(ptr noundef %24, ptr noundef @.str.1, i32 noundef 1007, ptr noundef @__func__.XLogWalRcvFlush)
  br label %27

26:                                               ; preds = %12
  br label %27

27:                                               ; preds = %26, %22
  %28 = load ptr, ptr %5, align 8
  %29 = getelementptr inbounds nuw %struct.WalRcvData, ptr %28, i32 0, i32 7
  %30 = load i64, ptr %29, align 8
  %31 = load i64, ptr getelementptr inbounds nuw (%struct.anon.1, ptr @LogstreamResult, i32 0, i32 1), align 8
  %32 = icmp ult i64 %30, %31
  br i1 %32, label %33, label %45

33:                                               ; preds = %27
  %34 = load ptr, ptr %5, align 8
  %35 = getelementptr inbounds nuw %struct.WalRcvData, ptr %34, i32 0, i32 7
  %36 = load i64, ptr %35, align 8
  %37 = load ptr, ptr %5, align 8
  %38 = getelementptr inbounds nuw %struct.WalRcvData, ptr %37, i32 0, i32 9
  store i64 %36, ptr %38, align 8
  %39 = load i64, ptr getelementptr inbounds nuw (%struct.anon.1, ptr @LogstreamResult, i32 0, i32 1), align 8
  %40 = load ptr, ptr %5, align 8
  %41 = getelementptr inbounds nuw %struct.WalRcvData, ptr %40, i32 0, i32 7
  store i64 %39, ptr %41, align 8
  %42 = load i32, ptr %4, align 4
  %43 = load ptr, ptr %5, align 8
  %44 = getelementptr inbounds nuw %struct.WalRcvData, ptr %43, i32 0, i32 8
  store i32 %42, ptr %44, align 8
  br label %45

45:                                               ; preds = %33, %27
  br label %46

46:                                               ; preds = %45
  call void asm sideeffect "", "~{memory},~{dirflag},~{fpsr},~{flags}"() #16, !srcloc !19
  %47 = load ptr, ptr %5, align 8
  %48 = getelementptr inbounds nuw %struct.WalRcvData, ptr %47, i32 0, i32 20
  store i8 0, ptr %48, align 2
  br label %49

49:                                               ; preds = %46
  br label %50

50:                                               ; preds = %49
  call void @WakeupRecovery()
  %51 = load i8, ptr @EnableHotStandby, align 1, !range !6, !noundef !7
  %52 = trunc i8 %51 to i1
  br i1 %52, label %53, label %57

53:                                               ; preds = %50
  %54 = load i32, ptr @max_wal_senders, align 4
  %55 = icmp sgt i32 %54, 0
  br i1 %55, label %56, label %57

56:                                               ; preds = %53
  call void @WalSndWakeup(i1 noundef zeroext true, i1 noundef zeroext false)
  br label %57

57:                                               ; preds = %56, %53, %50
  %58 = load i8, ptr @update_process_title, align 1, !range !6, !noundef !7
  %59 = trunc i8 %58 to i1
  br i1 %59, label %60, label %72

60:                                               ; preds = %57
  call void @llvm.lifetime.start.p0(i64 50, ptr %6) #16
  %61 = getelementptr inbounds [50 x i8], ptr %6, i64 0, i64 0
  br label %62

62:                                               ; preds = %60
  br label %63

63:                                               ; preds = %62
  br label %64

64:                                               ; preds = %63
  store i32 1, ptr %7, align 4
  %65 = load i64, ptr @LogstreamResult, align 8
  %66 = lshr i64 %65, 32
  %67 = trunc i64 %66 to i32
  %68 = load i64, ptr @LogstreamResult, align 8
  %69 = trunc i64 %68 to i32
  %70 = call i32 (ptr, i64, ptr, ...) @pg_snprintf(ptr noundef %61, i64 noundef 50, ptr noundef @.str.35, i32 noundef %67, i32 noundef %69)
  %71 = getelementptr inbounds [50 x i8], ptr %6, i64 0, i64 0
  call void @set_ps_display(ptr noundef %71)
  call void @llvm.lifetime.end.p0(i64 50, ptr %6) #16
  br label %72

72:                                               ; preds = %64, %57
  %73 = load i8, ptr %3, align 1, !range !6, !noundef !7
  %74 = trunc i8 %73 to i1
  br i1 %74, label %76, label %75

75:                                               ; preds = %72
  call void @XLogWalRcvSendReply(i1 noundef zeroext false, i1 noundef zeroext false)
  call void @XLogWalRcvSendHSFeedback(i1 noundef zeroext false)
  br label %76

76:                                               ; preds = %75, %72
  call void @llvm.lifetime.end.p0(i64 8, ptr %5) #16
  br label %77

77:                                               ; preds = %76, %2
  ret void
}