; Function Attrs: nounwind uwtable
define internal fastcc void @XLogWalRcvFlush(i1 noundef zeroext %0, i32 noundef %1) unnamed_addr #0 {
  %3 = alloca [50 x i8], align 16
  %4 = load i64, ptr @LogstreamResult.1, align 8
  %5 = load i64, ptr @LogstreamResult.0, align 8
  %6 = icmp ult i64 %4, %5
  br i1 %6, label %7, label %42

7:                                                ; preds = %2
  %8 = load ptr, ptr @WalRcv, align 8
  %9 = load i32, ptr @recvFile, align 4
  %10 = load i64, ptr @recvSegNo, align 8
  tail call void @issue_xlog_fsync(i32 noundef %9, i64 noundef %10, i32 noundef %1) #16
  %11 = load i64, ptr @LogstreamResult.0, align 8
  store i64 %11, ptr @LogstreamResult.1, align 8
  %12 = getelementptr inbounds nuw i8, ptr %8, i64 2226
  %13 = tail call i8 asm sideeffect "\09lock\09\09\09\0A\09xchgb\09$0,$1\09\0A", "=q,=*m,0,*m,~{memory},~{cc},~{dirflag},~{fpsr},~{flags}"(ptr nonnull elementtype(i8) %12, i8 1, ptr nonnull elementtype(i8) %12) #16, !srcloc !5
  %.not = icmp eq i8 %13, 0
  br i1 %.not, label %16, label %14

14:                                               ; preds = %7
  %15 = tail call i32 @s_lock(ptr noundef nonnull %12, ptr noundef nonnull @.str.1, i32 noundef 1007, ptr noundef nonnull @__func__.XLogWalRcvFlush) #16
  br label %16

16:                                               ; preds = %7, %14
  %17 = getelementptr inbounds nuw i8, ptr %8, i64 48
  %18 = load i64, ptr %17, align 8
  %19 = load i64, ptr @LogstreamResult.1, align 8
  %20 = icmp ult i64 %18, %19
  br i1 %20, label %21, label %24

21:                                               ; preds = %16
  %22 = getelementptr inbounds nuw i8, ptr %8, i64 64
  store i64 %18, ptr %22, align 8
  store i64 %19, ptr %17, align 8
  %23 = getelementptr inbounds nuw i8, ptr %8, i64 56
  store i32 %1, ptr %23, align 8
  br label %24

24:                                               ; preds = %16, %21
  tail call void asm sideeffect "", "~{memory},~{dirflag},~{fpsr},~{flags}"() #16, !srcloc !13
  store i8 0, ptr %12, align 2
  tail call void @WakeupRecovery() #16
  %25 = load i8, ptr @EnableHotStandby, align 1, !range !8, !noundef !9
  %26 = trunc nuw i8 %25 to i1
  %27 = load i32, ptr @max_wal_senders, align 4
  %28 = icmp sgt i32 %27, 0
  %or.cond = select i1 %26, i1 %28, i1 false
  br i1 %or.cond, label %29, label %30

29:                                               ; preds = %24
  tail call void @WalSndWakeup(i1 noundef zeroext true, i1 noundef zeroext false) #16
  br label %30

30:                                               ; preds = %29, %24
  %31 = load i8, ptr @update_process_title, align 1, !range !8, !noundef !9
  %32 = trunc nuw i8 %31 to i1
  br i1 %32, label %33, label %40

33:                                               ; preds = %30
  call void @llvm.lifetime.start.p0(i64 50, ptr nonnull %3) #16
  %34 = load i64, ptr @LogstreamResult.0, align 8
  %35 = lshr i64 %34, 32
  %36 = trunc nuw i64 %35 to i32
  %37 = trunc i64 %34 to i32
  %38 = call i32 (ptr, i64, ptr, ...) @pg_snprintf(ptr noundef nonnull %3, i64 noundef 50, ptr noundef nonnull @.str.35, i32 noundef %36, i32 noundef %37) #16
  %39 = call i64 @strlen(ptr noundef nonnull dereferenceable(1) %3) #19
  call void @set_ps_display_with_len(ptr noundef nonnull %3, i64 noundef %39) #16
  call void @llvm.lifetime.end.p0(i64 50, ptr nonnull %3) #16
  br label %40

40:                                               ; preds = %33, %30
  br i1 %0, label %42, label %41

41:                                               ; preds = %40
  call fastcc void @XLogWalRcvSendReply(i1 noundef zeroext false, i1 noundef zeroext false)
  call fastcc void @XLogWalRcvSendHSFeedback(i1 noundef zeroext false)
  br label %42

42:                                               ; preds = %40, %41, %2
  ret void
}